target datalayout = "e-m:e-p270:32:32-p271:32:32-p272:64:64-i64:64-i128:128-f80:128-n8:16:32:64-S128"
target triple = "x86_64-pc-linux-gnu"

%"class.std::filesystem::__cxx11::path" = type { %"class.std::__cxx11::basic_string", %"struct.std::filesystem::__cxx11::path::_List" }
%"class.std::__cxx11::basic_string" = type { %"struct.std::__cxx11::basic_string<char>::_Alloc_hider", i64, %union.anon }
%"struct.std::__cxx11::basic_string<char>::_Alloc_hider" = type { ptr }
%union.anon = type { i64, [8 x i8] }
%"struct.std::filesystem::__cxx11::path::_List" = type { %"class.std::unique_ptr" }
%"class.std::unique_ptr" = type { %"struct.std::__uniq_ptr_data" }
%"struct.std::__uniq_ptr_data" = type { %"class.std::__uniq_ptr_impl" }
%"class.std::__uniq_ptr_impl" = type { %"class.std::tuple" }
%"class.std::tuple" = type { %"struct.std::_Tuple_impl" }
%"struct.std::_Tuple_impl" = type { %"struct.std::_Head_base.1" }
%"struct.std::_Head_base.1" = type { ptr }
%"class.std::filesystem::file_status" = type { i8, i32 }

@.str = private unnamed_addr constant [3 x i8] c"rb\00", align 1

; Function Attrs: mustprogress nounwind uwtable
define linkonce_odr noundef signext i8 @_ZNKSt10filesystem11file_status4typeEv(ptr noundef nonnull align 4 dereferenceable(8) %0) #5 comdat align 2 {
  %2 = alloca ptr, align 8
  store ptr %0, ptr %2, align 8
  %3 = load ptr, ptr %2, align 8
  %4 = getelementptr inbounds %"class.std::filesystem::file_status", ptr %3, i32 0, i32 0
  %5 = load i8, ptr %4, align 4
  ret i8 %5
}

; Function Attrs: mustprogress nounwind uwtable
define linkonce_odr noundef zeroext i1 @_ZNSt10filesystem12status_knownENS_11file_statusE(i64 %0) #5 comdat {
  %2 = alloca %"class.std::filesystem::file_status", align 4
  store i64 %0, ptr %2, align 4
  %3 = call noundef signext i8 @_ZNKSt10filesystem11file_status4typeEv(ptr noundef nonnull align 4 dereferenceable(8) %2) #3
  %4 = icmp ne i8 %3, 0
  ret i1 %4
}

; Function Attrs: mustprogress nounwind uwtable
define linkonce_odr noundef zeroext i1 @_ZNSt10filesystem6existsENS_11file_statusE(i64 %0) #5 comdat {
  %2 = alloca %"class.std::filesystem::file_status", align 4
  %3 = alloca %"class.std::filesystem::file_status", align 4
  store i64 %0, ptr %2, align 4
  call void @llvm.memcpy.p0.p0.i64(ptr align 4 %3, ptr align 4 %2, i64 8, i1 false)
  %4 = load i64, ptr %3, align 4
  %5 = call noundef zeroext i1 @_ZNSt10filesystem12status_knownENS_11file_statusE(i64 %4) #3
  br i1 %5, label %6, label %9

6:                                                ; preds = %1
  %7 = call noundef signext i8 @_ZNKSt10filesystem11file_status4typeEv(ptr noundef nonnull align 4 dereferenceable(8) %2) #3
  %8 = icmp ne i8 %7, -1
  br label %9

9:                                                ; preds = %6, %1
  %10 = phi i1 [ false, %1 ], [ %8, %6 ]
  ret i1 %10
}

; Function Attrs: mustprogress uwtable
define internal noundef i64 @_ZN4pkpyL8io_freadEPvmmP8_IO_FILE(ptr noundef %0, i64 noundef %1, i64 noundef %2, ptr noundef %3) #4 {
  %5 = alloca ptr, align 8
  %6 = alloca i64, align 8
  %7 = alloca i64, align 8
  %8 = alloca ptr, align 8
  store ptr %0, ptr %5, align 8
  store i64 %1, ptr %6, align 8
  store i64 %2, ptr %7, align 8
  store ptr %3, ptr %8, align 8
  %9 = load ptr, ptr %5, align 8
  %10 = load i64, ptr %6, align 8
  %11 = load i64, ptr %7, align 8
  %12 = load ptr, ptr %8, align 8
  %13 = call i64 @fread(ptr noundef %9, i64 noundef %10, i64 noundef %11, ptr noundef %12)
  ret i64 %13
}

; Function Attrs: mustprogress uwtable
define internal noundef ptr @_ZN4pkpyL8io_fopenEPKcS1_(ptr noundef %0, ptr noundef %1) #4 {
  %3 = alloca ptr, align 8
  %4 = alloca ptr, align 8
  store ptr %0, ptr %3, align 8
  store ptr %1, ptr %4, align 8
  %5 = load ptr, ptr %3, align 8
  %6 = load ptr, ptr %4, align 8
  %7 = call noalias ptr @fopen(ptr noundef %5, ptr noundef %6)
  ret ptr %7
}

; Function Attrs: mustprogress uwtable
define linkonce_odr noundef zeroext i1 @_ZNSt10filesystem6existsERKNS_7__cxx114pathE(ptr noundef nonnull align 8 dereferenceable(40) %0) #4 comdat {
  %2 = alloca ptr, align 8
  %3 = alloca %"class.std::filesystem::file_status", align 4
  store ptr %0, ptr %2, align 8
  %4 = load ptr, ptr %2, align 8
  %5 = call i64 @_ZNSt10filesystem6statusERKNS_7__cxx114pathE(ptr noundef nonnull align 8 dereferenceable(40) %4)
  store i64 %5, ptr %3, align 4
  %6 = load i64, ptr %3, align 4
  %7 = call noundef zeroext i1 @_ZNSt10filesystem6existsENS_11file_statusE(i64 %6) #3
  ret i1 %7
}

; Function Attrs: mustprogress uwtable
define noundef ptr @_ZN4pkpy23_default_import_handlerEPKcPi(ptr noundef %0, ptr noundef %1) #4 personality ptr @__gxx_personality_v0 {
  %3 = alloca ptr, align 8
  %4 = alloca ptr, align 8
  %5 = alloca ptr, align 8
  %6 = alloca i8, align 1
  %7 = alloca %"class.std::filesystem::__cxx11::path", align 8
  %8 = alloca ptr, align 8
  %9 = alloca i32, align 4
  %10 = alloca ptr, align 8
  %11 = alloca i32, align 4
  %12 = alloca ptr, align 8
  %13 = alloca i64, align 8
  store ptr %0, ptr %4, align 8
  store ptr %1, ptr %5, align 8
  call void @_ZNSt10filesystem7__cxx114pathC2IPKcS1_EERKT_NS1_6formatE(ptr noundef nonnull align 8 dereferenceable(40) %7, ptr noundef nonnull align 8 dereferenceable(8) %4, i8 noundef zeroext 2)
  %14 = invoke noundef zeroext i1 @_ZNSt10filesystem6existsERKNS_7__cxx114pathE(ptr noundef nonnull align 8 dereferenceable(40) %7)
          to label %15 unwind label %20

15:                                               ; preds = %2
  call void @_ZNSt10filesystem7__cxx114pathD2Ev(ptr noundef nonnull align 8 dereferenceable(40) %7) #3
  %16 = zext i1 %14 to i8
  store i8 %16, ptr %6, align 1
  %17 = load i8, ptr %6, align 1
  %18 = trunc i8 %17 to i1
  br i1 %18, label %24, label %19

19:                                               ; preds = %15
  store ptr null, ptr %3, align 8
  br label %51

20:                                               ; preds = %2
  %21 = landingpad { ptr, i32 }
          cleanup
  %22 = extractvalue { ptr, i32 } %21, 0
  store ptr %22, ptr %8, align 8
  %23 = extractvalue { ptr, i32 } %21, 1
  store i32 %23, ptr %9, align 4
  call void @_ZNSt10filesystem7__cxx114pathD2Ev(ptr noundef nonnull align 8 dereferenceable(40) %7) #3
  br label %53

24:                                               ; preds = %15
  %25 = load ptr, ptr %4, align 8
  %26 = call noundef ptr @_ZN4pkpyL8io_fopenEPKcS1_(ptr noundef %25, ptr noundef @.str)
  store ptr %26, ptr %10, align 8
  %27 = load ptr, ptr %10, align 8
  %28 = icmp ne ptr %27, null
  br i1 %28, label %30, label %29

29:                                               ; preds = %24
  store ptr null, ptr %3, align 8
  br label %51

30:                                               ; preds = %24
  %31 = load ptr, ptr %10, align 8
  %32 = call i32 @fseek(ptr noundef %31, i64 noundef 0, i32 noundef 2)
  %33 = load ptr, ptr %10, align 8
  %34 = call i64 @ftell(ptr noundef %33)
  %35 = trunc i64 %34 to i32
  store i32 %35, ptr %11, align 4
  %36 = load i32, ptr %11, align 4
  %37 = sext i32 %36 to i64
  %38 = call noalias noundef nonnull ptr @_Znam(i64 noundef %37) #16
  store ptr %38, ptr %12, align 8
  %39 = load ptr, ptr %10, align 8
  %40 = call i32 @fseek(ptr noundef %39, i64 noundef 0, i32 noundef 0)
  %41 = load ptr, ptr %12, align 8
  %42 = load i32, ptr %11, align 4
  %43 = sext i32 %42 to i64
  %44 = load ptr, ptr %10, align 8
  %45 = call noundef i64 @_ZN4pkpyL8io_freadEPvmmP8_IO_FILE(ptr noundef %41, i64 noundef 1, i64 noundef %43, ptr noundef %44)
  store i64 %45, ptr %13, align 8
  %46 = load ptr, ptr %10, align 8
  %47 = call i32 @fclose(ptr noundef %46)
  %48 = load i32, ptr %11, align 4
  %49 = load ptr, ptr %5, align 8
  store i32 %48, ptr %49, align 4
  %50 = load ptr, ptr %12, align 8
  store ptr %50, ptr %3, align 8
  br label %51

51:                                               ; preds = %30, %29, %19
  %52 = load ptr, ptr %3, align 8
  ret ptr %52

53:                                               ; preds = %20
  %54 = load ptr, ptr %8, align 8
  %55 = load i32, ptr %9, align 4
  %56 = insertvalue { ptr, i32 } poison, ptr %54, 0
  %57 = insertvalue { ptr, i32 } %56, i32 %55, 1
  resume { ptr, i32 } %57
}